libpjsua2.so.2v5 libpjsua2-2v5 #MINVER#
 _ZN10PendingLog7executeEb@Base 2.4.5~dfsg
 _ZN10PendingLogD0Ev@Base 2.4.5~dfsg
 _ZN10PendingLogD1Ev@Base 2.4.5~dfsg
 _ZN10PendingLogD2Ev@Base 2.4.5~dfsg
 _ZN10call_paramC1ERKN2pj11SipTxOptionE@Base 2.4.5~dfsg
 _ZN10call_paramC1ERKN2pj11SipTxOptionERKNS0_11CallSettingERKNSt7__cxx1112basic_stringIcSt11char_traitsIcESaIcEEE@Base 2.4.5~dfsg
 _ZN10call_paramC2ERKN2pj11SipTxOptionE@Base 2.4.5~dfsg
 _ZN10call_paramC2ERKN2pj11SipTxOptionERKNS0_11CallSettingERKNSt7__cxx1112basic_stringIcSt11char_traitsIcESaIcEEE@Base 2.4.5~dfsg
 _ZN13DevAudioMediaC1Ev@Base 2.4.5~dfsg
 _ZN13DevAudioMediaC2Ev@Base 2.4.5~dfsg
 _ZN13DevAudioMediaD0Ev@Base 2.4.5~dfsg
 _ZN13DevAudioMediaD1Ev@Base 2.4.5~dfsg
 _ZN13DevAudioMediaD2Ev@Base 2.4.5~dfsg
 _ZN14CallAudioMedia9setPortIdEi@Base 2.4.5~dfsg
 _ZN14CallAudioMediaD0Ev@Base 2.4.5~dfsg
 _ZN14CallAudioMediaD1Ev@Base 2.4.5~dfsg
 _ZN14CallAudioMediaD2Ev@Base 2.4.5~dfsg
 _ZN26PendingOnDtmfDigitCallback7executeEb@Base 2.4.5~dfsg
 _ZN26PendingOnDtmfDigitCallbackD0Ev@Base 2.4.5~dfsg
 _ZN26PendingOnDtmfDigitCallbackD1Ev@Base 2.4.5~dfsg
 _ZN26PendingOnDtmfDigitCallbackD2Ev@Base 2.4.5~dfsg
 _ZN27PendingOnMediaEventCallback7executeEb@Base 2.4.5~dfsg
 _ZN27PendingOnMediaEventCallbackD0Ev@Base 2.4.5~dfsg
 _ZN27PendingOnMediaEventCallbackD1Ev@Base 2.4.5~dfsg
 _ZN27PendingOnMediaEventCallbackD2Ev@Base 2.4.5~dfsg
 _ZN2pj10AudioMedia13adjustRxLevelEf@Base 2.4.5~dfsg
 _ZN2pj10AudioMedia13adjustTxLevelEf@Base 2.4.5~dfsg
 _ZN2pj10AudioMedia17getPortInfoFromIdEi@Base 2.4.5~dfsg
 _ZN2pj10AudioMedia17registerMediaPortEPv@Base 2.4.5~dfsg
 _ZN2pj10AudioMedia17typecastFromMediaEPNS_5MediaE@Base 2.4.5~dfsg
 _ZN2pj10AudioMedia19unregisterMediaPortEv@Base 2.4.5~dfsg
 _ZN2pj10AudioMediaC1Ev@Base 2.4.5~dfsg
 _ZN2pj10AudioMediaC2Ev@Base 2.4.5~dfsg
 _ZN2pj10AudioMediaD0Ev@Base 2.4.5~dfsg
 _ZN2pj10AudioMediaD1Ev@Base 2.4.5~dfsg
 _ZN2pj10AudioMediaD2Ev@Base 2.4.5~dfsg
 _ZN2pj10MediaEvent6fromPjERK13pjmedia_event@Base 2.4.5~dfsg
 _ZN2pj10SdpSession6fromPjERK19pjmedia_sdp_session@Base 2.4.5~dfsg
 _ZN2pj10StreamInfo6fromPjERK17pjsua_stream_info@Base 2.4.5~dfsg
 _ZN2pj10StreamStat6fromPjERK17pjsua_stream_stat@Base 2.4.5~dfsg
 _ZN2pj11AccountInfo6fromPjERK14pjsua_acc_info@Base 2.4.5~dfsg
 _ZN2pj11BuddyConfig10readObjectERKNS_13ContainerNodeE@Base 2.4.5~dfsg
 _ZN2pj11CallOpParamC1Eb@Base 2.4.5~dfsg
 _ZN2pj11CallOpParamC2Eb@Base 2.4.5~dfsg
 _ZN2pj11CallOpParamD1Ev@Base 2.4.5~dfsg
 _ZN2pj11CallOpParamD2Ev@Base 2.4.5~dfsg
 _ZN2pj11CallSetting6fromPjERK18pjsua_call_setting@Base 2.4.5~dfsg
 _ZN2pj11CallSettingC1Ei@Base 2.4.5~dfsg
 _ZN2pj11CallSettingC2Ei@Base 2.4.5~dfsg
 _ZN2pj11MediaConfig10readObjectERKNS_13ContainerNodeE@Base 2.4.5~dfsg
 _ZN2pj11MediaConfig6fromPjERK18pjsua_media_config@Base 2.4.5~dfsg
 _ZN2pj11MediaConfigC1Ev@Base 2.4.5~dfsg
 _ZN2pj11MediaConfigC2Ev@Base 2.4.5~dfsg
 _ZN2pj11SipTxOption6fromPjERK14pjsua_msg_data@Base 2.4.5~dfsg
 _ZN2pj11SipTxOptionD1Ev@Base 2.4.5~dfsg
 _ZN2pj11SipTxOptionD2Ev@Base 2.4.5~dfsg
 _ZN2pj11VideoWindow4ShowEb@Base 2.4.5~dfsg
 _ZN2pj11VideoWindow6rotateEi@Base 2.4.5~dfsg
 _ZN2pj11VideoWindow6setPosERKNS_15MediaCoordinateE@Base 2.4.5~dfsg
 _ZN2pj11VideoWindow7setSizeERKNS_9MediaSizeE@Base 2.4.5~dfsg
 _ZN2pj11VideoWindow9setWindowERKNS_17VideoWindowHandleE@Base 2.4.5~dfsg
 _ZN2pj11VideoWindowC1Ei@Base 2.4.5~dfsg
 _ZN2pj11VideoWindowC2Ei@Base 2.4.5~dfsg
 _ZN2pj12AudioDevInfo6fromPjERK20pjmedia_aud_dev_info@Base 2.4.5~dfsg
 _ZN2pj12AudioDevInfoD1Ev@Base 2.4.5~dfsg
 _ZN2pj12AudioDevInfoD2Ev@Base 2.4.5~dfsg
 _ZN2pj12AuthCredInfo10readObjectERKNS_13ContainerNodeE@Base 2.4.5~dfsg
 _ZN2pj12AuthCredInfoC1ERKNSt7__cxx1112basic_stringIcSt11char_traitsIcESaIcEEES8_S8_iS6_@Base 2.4.5~dfsg
 _ZN2pj12AuthCredInfoC1Ev@Base 2.4.5~dfsg
 _ZN2pj12AuthCredInfoC2ERKNSt7__cxx1112basic_stringIcSt11char_traitsIcESaIcEEES8_S8_iS6_@Base 2.4.5~dfsg
 _ZN2pj12AuthCredInfoC2Ev@Base 2.4.5~dfsg
 _ZN2pj12AuthCredInfoD1Ev@Base 2.4.5~dfsg
 _ZN2pj12AuthCredInfoD2Ev@Base 2.4.5~dfsg
 _ZN2pj12ConfPortInfo6fromPjERK20pjsua_conf_port_info@Base 2.4.5~dfsg
 _ZN2pj12JsonDocument10loadStringERKNSt7__cxx1112basic_stringIcSt11char_traitsIcESaIcEEE@Base 2.4.5~dfsg
 _ZN2pj12JsonDocument10saveStringB5cxx11Ev@Base 2.4.5~dfsg
 _ZN2pj12JsonDocument7getPoolEv@Base 2.4.5~dfsg
 _ZN2pj12JsonDocument8loadFileERKNSt7__cxx1112basic_stringIcSt11char_traitsIcESaIcEEE@Base 2.4.5~dfsg
 _ZN2pj12JsonDocument8saveFileERKNSt7__cxx1112basic_stringIcSt11char_traitsIcESaIcEEE@Base 2.4.5~dfsg
 _ZN2pj12JsonDocumentC1Ev@Base 2.4.5~dfsg
 _ZN2pj12JsonDocumentC2Ev@Base 2.4.5~dfsg
 _ZN2pj12JsonDocumentD0Ev@Base 2.4.5~dfsg
 _ZN2pj12JsonDocumentD1Ev@Base 2.4.5~dfsg
 _ZN2pj12JsonDocumentD2Ev@Base 2.4.5~dfsg
 _ZN2pj12SipEventBodyD1Ev@Base 2.4.5~dfsg
 _ZN2pj12SipEventBodyD2Ev@Base 2.4.5~dfsg
 _ZN2pj12SipMediaType6fromPjERK16pjsip_media_type@Base 2.4.5~dfsg
 _ZN2pj12SipMediaTypeD1Ev@Base 2.4.5~dfsg
 _ZN2pj12SipMediaTypeD2Ev@Base 2.4.5~dfsg
 _ZN2pj12VideoDevInfo6fromPjERK20pjmedia_vid_dev_info@Base 2.4.5~dfsg
 _ZN2pj12VideoDevInfoD1Ev@Base 2.4.5~dfsg
 _ZN2pj12VideoDevInfoD2Ev@Base 2.4.5~dfsg
 _ZN2pj12VideoPreview14getVideoWindowEv@Base 2.4.5~dfsg
 _ZN2pj12VideoPreview4stopEv@Base 2.4.5~dfsg
 _ZN2pj12VideoPreview5startERKNS_19VideoPreviewOpParamE@Base 2.4.5~dfsg
 _ZN2pj12VideoPreview9hasNativeEv@Base 2.4.5~dfsg
 _ZN2pj12VideoPreviewC1Ei@Base 2.4.5~dfsg
 _ZN2pj12VideoPreviewC2Ei@Base 2.4.5~dfsg
 _ZN2pj13AccountConfig10readObjectERKNS_13ContainerNodeE@Base 2.4.5~dfsg
 _ZN2pj13AccountConfig6fromPjERK16pjsua_acc_configPK18pjsua_media_config@Base 2.4.5~dfsg
 _ZN2pj13AccountConfigC1Ev@Base 2.4.5~dfsg
 _ZN2pj13AccountConfigC2Ev@Base 2.4.5~dfsg
 _ZN2pj13AudDevManager10setNullDevEv@Base 2.4.5~dfsg
 _ZN2pj13AudDevManager11refreshDevsEv@Base 2.4.5~dfsg
 _ZN2pj13AudDevManager12setEcOptionsEjj@Base 2.4.5~dfsg
 _ZN2pj13AudDevManager12setExtFormatERKNS_16MediaFormatAudioEb@Base 2.4.5~dfsg
 _ZN2pj13AudDevManager13setInputRouteE21pjmedia_aud_dev_routeb@Base 2.4.5~dfsg
 _ZN2pj13AudDevManager14setInputVolumeEjb@Base 2.4.5~dfsg
 _ZN2pj13AudDevManager14setOutputRouteE21pjmedia_aud_dev_routeb@Base 2.4.5~dfsg
 _ZN2pj13AudDevManager15setInputLatencyEjb@Base 2.4.5~dfsg
 _ZN2pj13AudDevManager15setOutputVolumeEjb@Base 2.4.5~dfsg
 _ZN2pj13AudDevManager16setOutputLatencyEjb@Base 2.4.5~dfsg
 _ZN2pj13AudDevManager17clearAudioDevListEv@Base 2.4.5~dfsg
 _ZN2pj13AudDevManager18getCaptureDevMediaEv@Base 2.4.5~dfsg
 _ZN2pj13AudDevManager19getPlaybackDevMediaEv@Base 2.4.5~dfsg
 _ZN2pj13AudDevManager6setCngEbb@Base 2.4.5~dfsg
 _ZN2pj13AudDevManager6setPlcEbb@Base 2.4.5~dfsg
 _ZN2pj13AudDevManager6setVadEbb@Base 2.4.5~dfsg
 _ZN2pj13AudDevManager7enumDevEv@Base 2.4.5~dfsg
 _ZN2pj13AudDevManager8setNoDevEv@Base 2.4.5~dfsg
 _ZN2pj13AudDevManagerC1Ev@Base 2.4.5~dfsg
 _ZN2pj13AudDevManagerC2Ev@Base 2.4.5~dfsg
 _ZN2pj13AudDevManagerD1Ev@Base 2.4.5~dfsg
 _ZN2pj13AudDevManagerD2Ev@Base 2.4.5~dfsg
 _ZN2pj13CallMediaInfo6fromPjERK21pjsua_call_media_info@Base 2.4.5~dfsg
 _ZN2pj13CallMediaInfoC1Ev@Base 2.4.5~dfsg
 _ZN2pj13CallMediaInfoC2Ev@Base 2.4.5~dfsg
 _ZN2pj13ContainerNode11writeNumberERKNSt7__cxx1112basic_stringIcSt11char_traitsIcESaIcEEEf@Base 2.4.5~dfsg
 _ZN2pj13ContainerNode11writeObjectERKNS_16PersistentObjectE@Base 2.4.5~dfsg
 _ZN2pj13ContainerNode11writeStringERKNSt7__cxx1112basic_stringIcSt11char_traitsIcESaIcEEES8_@Base 2.4.5~dfsg
 _ZN2pj13ContainerNode13writeNewArrayERKNSt7__cxx1112basic_stringIcSt11char_traitsIcESaIcEEE@Base 2.4.5~dfsg
 _ZN2pj13ContainerNode17writeNewContainerERKNSt7__cxx1112basic_stringIcSt11char_traitsIcESaIcEEE@Base 2.4.5~dfsg
 _ZN2pj13ContainerNode17writeStringVectorERKNSt7__cxx1112basic_stringIcSt11char_traitsIcESaIcEEERKSt6vectorIS6_SaIS6_EE@Base 2.4.5~dfsg
 _ZN2pj13ContainerNode8writeIntERKNSt7__cxx1112basic_stringIcSt11char_traitsIcESaIcEEEi@Base 2.4.5~dfsg
 _ZN2pj13ContainerNode9writeBoolERKNSt7__cxx1112basic_stringIcSt11char_traitsIcESaIcEEEb@Base 2.4.5~dfsg
 _ZN2pj13ToneGenerator10playDigitsERKSt6vectorINS_9ToneDigitESaIS2_EEb@Base 2.4.5~dfsg
 _ZN2pj13ToneGenerator11setDigitMapERKSt6vectorINS_17ToneDigitMapDigitESaIS2_EE@Base 2.4.5~dfsg
 _ZN2pj13ToneGenerator19createToneGeneratorEjj@Base 2.4.5~dfsg
 _ZN2pj13ToneGenerator4playERKSt6vectorINS_8ToneDescESaIS2_EEb@Base 2.4.5~dfsg
 _ZN2pj13ToneGenerator4stopEv@Base 2.4.5~dfsg
 _ZN2pj13ToneGenerator6rewindEv@Base 2.4.5~dfsg
 _ZN2pj13ToneGeneratorC1Ev@Base 2.4.5~dfsg
 _ZN2pj13ToneGeneratorC2Ev@Base 2.4.5~dfsg
 _ZN2pj13ToneGeneratorD0Ev@Base 2.4.5~dfsg
 _ZN2pj13ToneGeneratorD1Ev@Base 2.4.5~dfsg
 _ZN2pj13ToneGeneratorD2Ev@Base 2.4.5~dfsg
 _ZN2pj13TransportInfo6fromPjERK20pjsua_transport_info@Base 2.4.5~dfsg
 _ZN2pj13TsxStateEventD1Ev@Base 2.4.5~dfsg
 _ZN2pj13TsxStateEventD2Ev@Base 2.4.5~dfsg
 _ZN2pj13VidDevManager11getDevCountEv@Base 2.4.5~dfsg
 _ZN2pj13VidDevManager11refreshDevsEv@Base 2.4.5~dfsg
 _ZN2pj13VidDevManager13setInputScaleEiRKNS_9MediaSizeEb@Base 2.4.5~dfsg
 _ZN2pj13VidDevManager16setCaptureOrientEi14pjmedia_orientb@Base 2.4.5~dfsg
 _ZN2pj13VidDevManager17clearVideoDevListEv@Base 2.4.5~dfsg
 _ZN2pj13VidDevManager20getOutputWindowFlagsEi@Base 2.4.5~dfsg
 _ZN2pj13VidDevManager20setOutputWindowFlagsEiib@Base 2.4.5~dfsg
 _ZN2pj13VidDevManager7enumDevEv@Base 2.4.5~dfsg
 _ZN2pj13VidDevManager9setFormatEiRKNS_16MediaFormatVideoEb@Base 2.4.5~dfsg
 _ZN2pj13VidDevManager9switchDevEiRKNS_16VideoSwitchParamE@Base 2.4.5~dfsg
 _ZN2pj13VidDevManagerC1Ev@Base 2.4.5~dfsg
 _ZN2pj13VidDevManagerC2Ev@Base 2.4.5~dfsg
 _ZN2pj13VidDevManagerD1Ev@Base 2.4.5~dfsg
 _ZN2pj13VidDevManagerD2Ev@Base 2.4.5~dfsg
 _ZN2pj13readIntVectorERNS_13ContainerNodeERKNSt7__cxx1112basic_stringIcSt11char_traitsIcESaIcEEERSt6vectorIiSaIiEE@Base 2.4.5~dfsg
 _ZN2pj13readQosParamsERNS_13ContainerNodeER13pj_qos_params@Base 2.4.5~dfsg
 _ZN2pj14FindBuddyMatch5matchERKNSt7__cxx1112basic_stringIcSt11char_traitsIcESaIcEEERKNS_5BuddyE@Base 2.4.5~dfsg
 _ZN2pj14FindBuddyMatchD0Ev@Base 2.4.5~dfsg
 _ZN2pj14FindBuddyMatchD1Ev@Base 2.4.5~dfsg
 _ZN2pj14FindBuddyMatchD2Ev@Base 2.4.5~dfsg
 _ZN2pj14PresenceStatusC1Ev@Base 2.4.5~dfsg
 _ZN2pj14PresenceStatusC2Ev@Base 2.4.5~dfsg
 _ZN2pj14RtcpStreamStat6fromPjERK24pjmedia_rtcp_stream_stat@Base 2.4.5~dfsg
 _ZN2pj14SipTransaction6fromPjER17pjsip_transaction@Base 2.4.5~dfsg
 _ZN2pj14SipTransactionC1Ev@Base 2.4.5~dfsg
 _ZN2pj14SipTransactionC2Ev@Base 2.4.5~dfsg
 _ZN2pj14readSipHeadersERKNS_13ContainerNodeERKNSt7__cxx1112basic_stringIcSt11char_traitsIcESaIcEEERSt6vectorINS_9SipHeaderESaISC_EE@Base 2.4.5~dfsg
 _ZN2pj14writeIntVectorERNS_13ContainerNodeERKNSt7__cxx1112basic_stringIcSt11char_traitsIcESaIcEEERKSt6vectorIiSaIiEE@Base 2.4.5~dfsg
 _ZN2pj14writeQosParamsERNS_13ContainerNodeERK13pj_qos_params@Base 2.4.5~dfsg
 _ZN2pj15TransportConfig10readObjectERKNS_13ContainerNodeE@Base 2.4.5~dfsg
 _ZN2pj15TransportConfig6fromPjERK22pjsua_transport_config@Base 2.4.5~dfsg
 _ZN2pj15TransportConfigC1Ev@Base 2.4.5~dfsg
 _ZN2pj15TransportConfigC2Ev@Base 2.4.5~dfsg
 _ZN2pj15TransportConfigD1Ev@Base 2.4.5~dfsg
 _ZN2pj15TransportConfigD2Ev@Base 2.4.5~dfsg
 _ZN2pj15writeSipHeadersERNS_13ContainerNodeERKNSt7__cxx1112basic_stringIcSt11char_traitsIcESaIcEEERKSt6vectorINS_9SipHeaderESaISB_EE@Base 2.4.5~dfsg
 _ZN2pj16AccountMwiConfig10readObjectERKNS_13ContainerNodeE@Base 2.4.5~dfsg
 _ZN2pj16AccountNatConfig10readObjectERKNS_13ContainerNodeE@Base 2.4.5~dfsg
 _ZN2pj16AccountRegConfig10readObjectERKNS_13ContainerNodeE@Base 2.4.5~dfsg
 _ZN2pj16AccountSipConfig10readObjectERKNS_13ContainerNodeE@Base 2.4.5~dfsg
 _ZN2pj16AccountSipConfigD1Ev@Base 2.4.5~dfsg
 _ZN2pj16AccountSipConfigD2Ev@Base 2.4.5~dfsg
 _ZN2pj16AudioMediaPlayer12createPlayerERKNSt7__cxx1112basic_stringIcSt11char_traitsIcESaIcEEEj@Base 2.4.5~dfsg
 _ZN2pj16AudioMediaPlayer14createPlaylistERKSt6vectorINSt7__cxx1112basic_stringIcSt11char_traitsIcESaIcEEESaIS7_EERKS7_j@Base 2.4.5~dfsg
 _ZN2pj16AudioMediaPlayer22typecastFromAudioMediaEPNS_10AudioMediaE@Base 2.4.5~dfsg
 _ZN2pj16AudioMediaPlayer5onEofEv@Base 2.4.5~dfsg
 _ZN2pj16AudioMediaPlayer6eof_cbEP12pjmedia_portPv@Base 2.4.5~dfsg
 _ZN2pj16AudioMediaPlayer6setPosEj@Base 2.4.5~dfsg
 _ZN2pj16AudioMediaPlayerC1Ev@Base 2.4.5~dfsg
 _ZN2pj16AudioMediaPlayerC2Ev@Base 2.4.5~dfsg
 _ZN2pj16AudioMediaPlayerD0Ev@Base 2.4.5~dfsg
 _ZN2pj16AudioMediaPlayerD1Ev@Base 2.4.5~dfsg
 _ZN2pj16AudioMediaPlayerD2Ev@Base 2.4.5~dfsg
 _ZN2pj16MediaFormatAudio6fromPjERK14pjmedia_format@Base 2.4.5~dfsg
 _ZN2pj16MediaFormatVideo6fromPjERK14pjmedia_format@Base 2.4.5~dfsg
 _ZN2pj16SipMultipartPart6fromPjERK20pjsip_multipart_part@Base 2.4.5~dfsg
 _ZN2pj16SipMultipartPartD1Ev@Base 2.4.5~dfsg
 _ZN2pj16SipMultipartPartD2Ev@Base 2.4.5~dfsg
 _ZN2pj17AccountCallConfig10readObjectERKNS_13ContainerNodeE@Base 2.4.5~dfsg
 _ZN2pj17AccountPresConfig10readObjectERKNS_13ContainerNodeE@Base 2.4.5~dfsg
 _ZN2pj18AccountMediaConfig10readObjectERKNS_13ContainerNodeE@Base 2.4.5~dfsg
 _ZN2pj18AccountVideoConfig10readObjectERKNS_13ContainerNodeE@Base 2.4.5~dfsg
 _ZN2pj18AudioMediaRecorder14createRecorderERKNSt7__cxx1112basic_stringIcSt11char_traitsIcESaIcEEEjlj@Base 2.4.5~dfsg
 _ZN2pj18AudioMediaRecorder22typecastFromAudioMediaEPNS_10AudioMediaE@Base 2.4.5~dfsg
 _ZN2pj18AudioMediaRecorderC1Ev@Base 2.4.5~dfsg
 _ZN2pj18AudioMediaRecorderC2Ev@Base 2.4.5~dfsg
 _ZN2pj18AudioMediaRecorderD0Ev@Base 2.4.5~dfsg
 _ZN2pj18AudioMediaRecorderD1Ev@Base 2.4.5~dfsg
 _ZN2pj18AudioMediaRecorderD2Ev@Base 2.4.5~dfsg
 _ZN2pj18MediaTransportInfo6fromPjERK22pjmedia_transport_info@Base 2.4.5~dfsg
 _ZN2pj18PersistentDocument11writeNumberERKNSt7__cxx1112basic_stringIcSt11char_traitsIcESaIcEEEf@Base 2.4.5~dfsg
 _ZN2pj18PersistentDocument11writeObjectERKNS_16PersistentObjectE@Base 2.4.5~dfsg
 _ZN2pj18PersistentDocument11writeStringERKNSt7__cxx1112basic_stringIcSt11char_traitsIcESaIcEEES8_@Base 2.4.5~dfsg
 _ZN2pj18PersistentDocument13writeNewArrayERKNSt7__cxx1112basic_stringIcSt11char_traitsIcESaIcEEE@Base 2.4.5~dfsg
 _ZN2pj18PersistentDocument17writeNewContainerERKNSt7__cxx1112basic_stringIcSt11char_traitsIcESaIcEEE@Base 2.4.5~dfsg
 _ZN2pj18PersistentDocument17writeStringVectorERKNSt7__cxx1112basic_stringIcSt11char_traitsIcESaIcEEERKSt6vectorIS6_SaIS6_EE@Base 2.4.5~dfsg
 _ZN2pj18PersistentDocument8writeIntERKNSt7__cxx1112basic_stringIcSt11char_traitsIcESaIcEEEi@Base 2.4.5~dfsg
 _ZN2pj18PersistentDocument9writeBoolERKNSt7__cxx1112basic_stringIcSt11char_traitsIcESaIcEEEb@Base 2.4.5~dfsg
 _ZN2pj19VideoPreviewOpParam6fromPjERK23pjsua_vid_preview_param@Base 2.4.5~dfsg
 _ZN2pj19VideoPreviewOpParamC1Ev@Base 2.4.5~dfsg
 _ZN2pj19VideoPreviewOpParamC2Ev@Base 2.4.5~dfsg
 _ZN2pj20CallSendRequestParamC1Ev@Base 2.4.5~dfsg
 _ZN2pj20CallSendRequestParamC2Ev@Base 2.4.5~dfsg
 _ZN2pj21CallVidSetStreamParamC1Ev@Base 2.4.5~dfsg
 _ZN2pj21CallVidSetStreamParamC2Ev@Base 2.4.5~dfsg
 _ZN2pj21OnCallRedirectedParamD1Ev@Base 2.4.5~dfsg
 _ZN2pj21OnCallRedirectedParamD2Ev@Base 2.4.5~dfsg
 _ZN2pj23SendInstantMessageParamC1Ev@Base 2.4.5~dfsg
 _ZN2pj23SendInstantMessageParamC2Ev@Base 2.4.5~dfsg
 _ZN2pj24OnIncomingSubscribeParamD1Ev@Base 2.4.5~dfsg
 _ZN2pj24OnIncomingSubscribeParamD2Ev@Base 2.4.5~dfsg
 _ZN2pj25SendTypingIndicationParamC1Ev@Base 2.4.5~dfsg
 _ZN2pj25SendTypingIndicationParamC2Ev@Base 2.4.5~dfsg
 _ZN2pj4Call11onCallStateERNS_16OnCallStateParamE@Base 2.4.5~dfsg
 _ZN2pj4Call11onDtmfDigitERNS_16OnDtmfDigitParamE@Base 2.4.5~dfsg
 _ZN2pj4Call11sendRequestERKNS_20CallSendRequestParamE@Base 2.4.5~dfsg
 _ZN2pj4Call11setUserDataEPv@Base 2.4.5~dfsg
 _ZN2pj4Call12vidSetStreamE22pjsua_call_vid_strm_opRKNS_21CallVidSetStreamParamE@Base 2.4.5~dfsg
 _ZN2pj4Call12xferReplacesERKS0_RKNS_11CallOpParamE@Base 2.4.5~dfsg
 _ZN2pj4Call13getRemNatTypeEv@Base 2.4.5~dfsg
 _ZN2pj4Call13onCallRxOfferERNS_18OnCallRxOfferParamE@Base 2.4.5~dfsg
 _ZN2pj4Call14onCallReplacedERNS_19OnCallReplacedParamE@Base 2.4.5~dfsg
 _ZN2pj4Call14onCallTsxStateERNS_19OnCallTsxStateParamE@Base 2.4.5~dfsg
 _ZN2pj4Call15onStreamCreatedERNS_20OnStreamCreatedParamE@Base 2.4.5~dfsg
 _ZN2pj4Call15processRedirectE17pjsip_redirect_op@Base 2.4.5~dfsg
 _ZN2pj4Call16onCallMediaEventERNS_21OnCallMediaEventParamE@Base 2.4.5~dfsg
 _ZN2pj4Call16onCallMediaStateERNS_21OnCallMediaStateParamE@Base 2.4.5~dfsg
 _ZN2pj4Call16onCallRedirectedERNS_21OnCallRedirectedParamE@Base 2.4.5~dfsg
 _ZN2pj4Call16onCallSdpCreatedERNS_21OnCallSdpCreatedParamE@Base 2.4.5~dfsg
 _ZN2pj4Call16onInstantMessageERNS_21OnInstantMessageParamE@Base 2.4.5~dfsg
 _ZN2pj4Call17onStreamDestroyedERNS_22OnStreamDestroyedParamE@Base 2.4.5~dfsg
 _ZN2pj4Call18onTypingIndicationERNS_23OnTypingIndicationParamE@Base 2.4.5~dfsg
 _ZN2pj4Call18processMediaUpdateERNS_21OnCallMediaStateParamE@Base 2.4.5~dfsg
 _ZN2pj4Call18processStateChangeERNS_16OnCallStateParamE@Base 2.4.5~dfsg
 _ZN2pj4Call18sendInstantMessageERKNS_23SendInstantMessageParamE@Base 2.4.5~dfsg
 _ZN2pj4Call20onCallReplaceRequestERNS_25OnCallReplaceRequestParamE@Base 2.4.5~dfsg
 _ZN2pj4Call20onCallTransferStatusERNS_25OnCallTransferStatusParamE@Base 2.4.5~dfsg
 _ZN2pj4Call20sendTypingIndicationERKNS_25SendTypingIndicationParamE@Base 2.4.5~dfsg
 _ZN2pj4Call21onCallTransferRequestERNS_26OnCallTransferRequestParamE@Base 2.4.5~dfsg
 _ZN2pj4Call22onCreateMediaTransportERNS_27OnCreateMediaTransportParamE@Base 2.4.5~dfsg
 _ZN2pj4Call22onInstantMessageStatusERNS_27OnInstantMessageStatusParamE@Base 2.4.5~dfsg
 _ZN2pj4Call25onCallMediaTransportStateERNS_30OnCallMediaTransportStateParamE@Base 2.4.5~dfsg
 _ZN2pj4Call4dumpEbNSt7__cxx1112basic_stringIcSt11char_traitsIcESaIcEEE@Base 2.4.5~dfsg
 _ZN2pj4Call4xferERKNSt7__cxx1112basic_stringIcSt11char_traitsIcESaIcEEERKNS_11CallOpParamE@Base 2.4.5~dfsg
 _ZN2pj4Call6answerERKNS_11CallOpParamE@Base 2.4.5~dfsg
 _ZN2pj4Call6hangupERKNS_11CallOpParamE@Base 2.4.5~dfsg
 _ZN2pj4Call6lookupEi@Base 2.4.5~dfsg
 _ZN2pj4Call6updateERKNS_11CallOpParamE@Base 2.4.5~dfsg
 _ZN2pj4Call7setHoldERKNS_11CallOpParamE@Base 2.4.5~dfsg
 _ZN2pj4Call8dialDtmfERKNSt7__cxx1112basic_stringIcSt11char_traitsIcESaIcEEE@Base 2.4.5~dfsg
 _ZN2pj4Call8makeCallERKNSt7__cxx1112basic_stringIcSt11char_traitsIcESaIcEEERKNS_11CallOpParamE@Base 2.4.5~dfsg
 _ZN2pj4Call8reinviteERKNS_11CallOpParamE@Base 2.4.5~dfsg
 _ZN2pj4CallC1ERNS_7AccountEi@Base 2.4.5~dfsg
 _ZN2pj4CallC2ERNS_7AccountEi@Base 2.4.5~dfsg
 _ZN2pj4CallD0Ev@Base 2.4.5~dfsg
 _ZN2pj4CallD1Ev@Base 2.4.5~dfsg
 _ZN2pj4CallD2Ev@Base 2.4.5~dfsg
 _ZN2pj5Buddy12onBuddyStateEv@Base 2.4.5~dfsg
 _ZN2pj5Buddy14updatePresenceEv@Base 2.4.5~dfsg
 _ZN2pj5Buddy17subscribePresenceEb@Base 2.4.5~dfsg
 _ZN2pj5Buddy18sendInstantMessageERKNS_23SendInstantMessageParamE@Base 2.4.5~dfsg
 _ZN2pj5Buddy20sendTypingIndicationERKNS_25SendTypingIndicationParamE@Base 2.4.5~dfsg
 _ZN2pj5Buddy6createERNS_7AccountERKNS_11BuddyConfigE@Base 2.4.5~dfsg
 _ZN2pj5BuddyC1Ev@Base 2.4.5~dfsg
 _ZN2pj5BuddyC2Ev@Base 2.4.5~dfsg
 _ZN2pj5BuddyD0Ev@Base 2.4.5~dfsg
 _ZN2pj5BuddyD1Ev@Base 2.4.5~dfsg
 _ZN2pj5BuddyD2Ev@Base 2.4.5~dfsg
 _ZN2pj5ErrorC1ERKS0_@Base 2.4.5~dfsg
 _ZN2pj5ErrorC1EiRKNSt7__cxx1112basic_stringIcSt11char_traitsIcESaIcEEES8_S8_i@Base 2.4.5~dfsg
 _ZN2pj5ErrorC1Ev@Base 2.4.5~dfsg
 _ZN2pj5ErrorC2ERKS0_@Base 2.4.5~dfsg
 _ZN2pj5ErrorC2EiRKNSt7__cxx1112basic_stringIcSt11char_traitsIcESaIcEEES8_S8_i@Base 2.4.5~dfsg
 _ZN2pj5ErrorC2Ev@Base 2.4.5~dfsg
 _ZN2pj5ErrorD1Ev@Base 2.4.5~dfsg
 _ZN2pj5ErrorD2Ev@Base 2.4.5~dfsg
 _ZN2pj5MediaC1E12pjmedia_type@Base 2.4.5~dfsg
 _ZN2pj5MediaC2E12pjmedia_type@Base 2.4.5~dfsg
 _ZN2pj5MediaD0Ev@Base 2.4.5~dfsg
 _ZN2pj5MediaD1Ev@Base 2.4.5~dfsg
 _ZN2pj5MediaD2Ev@Base 2.4.5~dfsg
 _ZN2pj7Account10onRegStateERNS_15OnRegStateParamE@Base 2.4.5~dfsg
 _ZN2pj7Account10presNotifyERKNS_15PresNotifyParamE@Base 2.4.5~dfsg
 _ZN2pj7Account10setDefaultEv@Base 2.4.5~dfsg
 _ZN2pj7Account11removeBuddyEPNS_5BuddyE@Base 2.4.5~dfsg
 _ZN2pj7Account12onRegStartedERNS_17OnRegStartedParamE@Base 2.4.5~dfsg
 _ZN2pj7Account12setTransportEi@Base 2.4.5~dfsg
 _ZN2pj7Account14onIncomingCallERNS_19OnIncomingCallParamE@Base 2.4.5~dfsg
 _ZN2pj7Account15setOnlineStatusERKNS_14PresenceStatusE@Base 2.4.5~dfsg
 _ZN2pj7Account15setRegistrationEb@Base 2.4.5~dfsg
 _ZN2pj7Account16onInstantMessageERNS_21OnInstantMessageParamE@Base 2.4.5~dfsg
 _ZN2pj7Account18onTypingIndicationERNS_23OnTypingIndicationParamE@Base 2.4.5~dfsg
 _ZN2pj7Account19onIncomingSubscribeERNS_24OnIncomingSubscribeParamE@Base 2.4.5~dfsg
 _ZN2pj7Account22onInstantMessageStatusERNS_27OnInstantMessageStatusParamE@Base 2.4.5~dfsg
 _ZN2pj7Account6createERKNS_13AccountConfigEb@Base 2.4.5~dfsg
 _ZN2pj7Account6lookupEi@Base 2.4.5~dfsg
 _ZN2pj7Account6modifyERKNS_13AccountConfigE@Base 2.4.5~dfsg
 _ZN2pj7Account8addBuddyEPNS_5BuddyE@Base 2.4.5~dfsg
 _ZN2pj7Account9onMwiInfoERNS_14OnMwiInfoParamE@Base 2.4.5~dfsg
 _ZN2pj7AccountC1Ev@Base 2.4.5~dfsg
 _ZN2pj7AccountC2Ev@Base 2.4.5~dfsg
 _ZN2pj7AccountD0Ev@Base 2.4.5~dfsg
 _ZN2pj7AccountD1Ev@Base 2.4.5~dfsg
 _ZN2pj7AccountD2Ev@Base 2.4.5~dfsg
 _ZN2pj7TimeVal6fromPjERK11pj_time_val@Base 2.4.5~dfsg
 _ZN2pj8CallInfo6fromPjERK15pjsua_call_info@Base 2.4.5~dfsg
 _ZN2pj8CallInfoD1Ev@Base 2.4.5~dfsg
 _ZN2pj8CallInfoD2Ev@Base 2.4.5~dfsg
 _ZN2pj8Endpoint10libDestroyEj@Base 2.4.5~dfsg
 _ZN2pj8Endpoint10lookupCallEiPKc@Base 2.4.5~dfsg
 _ZN2pj8Endpoint10natGetTypeEv@Base 2.4.5~dfsg
 _ZN2pj8Endpoint10on_typing2EiPK8pj_str_tS3_S3_iP13pjsip_rx_datai@Base 2.4.5~dfsg
 _ZN2pj8Endpoint11mediaRemoveERNS_10AudioMediaE@Base 2.4.5~dfsg
 _ZN2pj8Endpoint11on_mwi_infoEiP14pjsua_mwi_info@Base 2.4.5~dfsg
 _ZN2pj8Endpoint12utilLogWriteERNS_8LogEntryE@Base 2.4.5~dfsg
 _ZN2pj8Endpoint12utilLogWriteEiRKNSt7__cxx1112basic_stringIcSt11char_traitsIcESaIcEEES8_@Base 2.4.5~dfsg
 _ZN2pj8Endpoint12utilStrErrorB5cxx11Ei@Base 2.4.5~dfsg
 _ZN2pj8Endpoint13audDevManagerEv@Base 2.4.5~dfsg
 _ZN2pj8Endpoint13codecSetParamERKNSt7__cxx1112basic_stringIcSt11char_traitsIcESaIcEEEPv@Base 2.4.5~dfsg
 _ZN2pj8Endpoint13natDetectTypeEv@Base 2.4.5~dfsg
 _ZN2pj8Endpoint13on_call_stateEiP11pjsip_event@Base 2.4.5~dfsg
 _ZN2pj8Endpoint13on_dtmf_digitEii@Base 2.4.5~dfsg
 _ZN2pj8Endpoint13on_nat_detectEPK25pj_stun_nat_detect_result@Base 2.4.5~dfsg
 _ZN2pj8Endpoint13on_reg_state2EiP14pjsua_reg_info@Base 2.4.5~dfsg
 _ZN2pj8Endpoint13transportEnumEv@Base 2.4.5~dfsg
 _ZN2pj8Endpoint13utilVerifyUriERKNSt7__cxx1112basic_stringIcSt11char_traitsIcESaIcEEE@Base 2.4.5~dfsg
 _ZN2pj8Endpoint13vidDevManagerEv@Base 2.4.5~dfsg
 _ZN2pj8Endpoint14hangupAllCallsEv@Base 2.4.5~dfsg
 _ZN2pj8Endpoint14on_buddy_stateEi@Base 2.4.5~dfsg
 _ZN2pj8Endpoint14on_reg_startedEii@Base 2.4.5~dfsg
 _ZN2pj8Endpoint14transportCloseEi@Base 2.4.5~dfsg
 _ZN2pj8Endpoint14videoCodecEnumEv@Base 2.4.5~dfsg
 _ZN2pj8Endpoint15libHandleEventsEj@Base 2.4.5~dfsg
 _ZN2pj8Endpoint15onSelectAccountERNS_20OnSelectAccountParamE@Base 2.4.5~dfsg
 _ZN2pj8Endpoint15stun_resolve_cbEPK22pj_stun_resolve_result@Base 2.4.5~dfsg
 _ZN2pj8Endpoint15transportCreateE22pjsip_transport_type_eRKNS_15TransportConfigE@Base 2.4.5~dfsg
 _ZN2pj8Endpoint15utilTimerCancelEPv@Base 2.4.5~dfsg
 _ZN2pj8Endpoint16codecSetPriorityERKNSt7__cxx1112basic_stringIcSt11char_traitsIcESaIcEEEh@Base 2.4.5~dfsg
 _ZN2pj8Endpoint16onTransportStateERKNS_21OnTransportStateParamE@Base 2.4.5~dfsg
 _ZN2pj8Endpoint16on_call_replacedEii@Base 2.4.5~dfsg
 _ZN2pj8Endpoint16on_call_rx_offerEiPK19pjmedia_sdp_sessionPvP17pjsip_status_codeP18pjsua_call_setting@Base 2.4.5~dfsg
 _ZN2pj8Endpoint16on_incoming_callEiiP13pjsip_rx_data@Base 2.4.5~dfsg
 _ZN2pj8Endpoint16on_pager_status2EiPK8pj_str_tS3_Pv17pjsip_status_codeS3_P13pjsip_tx_dataP13pjsip_rx_datai@Base 2.4.5~dfsg
 _ZN2pj8Endpoint16transportGetInfoEi@Base 2.4.5~dfsg
 _ZN2pj8Endpoint16utilVerifySipUriERKNSt7__cxx1112basic_stringIcSt11char_traitsIcESaIcEEE@Base 2.4.5~dfsg
 _ZN2pj8Endpoint17libRegisterThreadERKNSt7__cxx1112basic_stringIcSt11char_traitsIcESaIcEEE@Base 2.4.5~dfsg
 _ZN2pj8Endpoint17on_call_tsx_stateEiP17pjsip_transactionP11pjsip_event@Base 2.4.5~dfsg
 _ZN2pj8Endpoint17on_stream_createdEiP14pjmedia_streamjPP12pjmedia_port@Base 2.4.5~dfsg
 _ZN2pj8Endpoint17utilAddPendingJobEPNS_10PendingJobE@Base 2.4.5~dfsg
 _ZN2pj8Endpoint17utilTimerScheduleEjPv@Base 2.4.5~dfsg
 _ZN2pj8Endpoint18clearCodecInfoListERSt6vectorIPNS_9CodecInfoESaIS3_EE@Base 2.4.5~dfsg
 _ZN2pj8Endpoint18on_call_redirectedEiPK9pjsip_uriPK11pjsip_event@Base 2.4.5~dfsg
 _ZN2pj8Endpoint18on_transport_stateEP15pjsip_transport21pjsip_transport_statePK26pjsip_transport_state_info@Base 2.4.5~dfsg
 _ZN2pj8Endpoint18performPendingJobsEv@Base 2.4.5~dfsg
 _ZN2pj8Endpoint18transportSetEnableEib@Base 2.4.5~dfsg
 _ZN2pj8Endpoint18videoCodecSetParamERKNSt7__cxx1112basic_stringIcSt11char_traitsIcESaIcEEEPv@Base 2.4.5~dfsg
 _ZN2pj8Endpoint19natCheckStunServersERKSt6vectorINSt7__cxx1112basic_stringIcSt11char_traitsIcESaIcEEESaIS7_EEbPv@Base 2.4.5~dfsg
 _ZN2pj8Endpoint19on_call_media_eventEijP13pjmedia_event@Base 2.4.5~dfsg
 _ZN2pj8Endpoint19on_call_media_stateEi@Base 2.4.5~dfsg
 _ZN2pj8Endpoint19on_call_sdp_createdEiP19pjmedia_sdp_sessionP9pj_pool_tPKS1_@Base 2.4.5~dfsg
 _ZN2pj8Endpoint19on_stream_destroyedEiP14pjmedia_streamj@Base 2.4.5~dfsg
 _ZN2pj8Endpoint19updateCodecInfoListEP16pjsua_codec_infojRSt6vectorIPNS_9CodecInfoESaIS5_EE@Base 2.4.5~dfsg
 _ZN2pj8Endpoint20libStopWorkerThreadsEv@Base 2.4.5~dfsg
 _ZN2pj8Endpoint21libIsThreadRegisteredEv@Base 2.4.5~dfsg
 _ZN2pj8Endpoint21on_incoming_subscribeEiP14pjsua_srv_presiPK8pj_str_tP13pjsip_rx_dataP17pjsip_status_codePS3_P14pjsua_msg_data@Base 2.4.5~dfsg
 _ZN2pj8Endpoint21videoCodecSetPriorityERKNSt7__cxx1112basic_stringIcSt11char_traitsIcESaIcEEEh@Base 2.4.5~dfsg
 _ZN2pj8Endpoint22onNatDetectionCompleteERKNS_27OnNatDetectionCompleteParamE@Base 2.4.5~dfsg
 _ZN2pj8Endpoint23on_call_transfer_statusEiiPK8pj_str_tiPi@Base 2.4.5~dfsg
 _ZN2pj8Endpoint24on_call_replace_request2EiP13pjsip_rx_dataPiP8pj_str_tP18pjsua_call_setting@Base 2.4.5~dfsg
 _ZN2pj8Endpoint25natCancelCheckStunServersEPvb@Base 2.4.5~dfsg
 _ZN2pj8Endpoint25on_call_transfer_request2EiPK8pj_str_tP17pjsip_status_codeP18pjsua_call_setting@Base 2.4.5~dfsg
 _ZN2pj8Endpoint25on_create_media_transportEijP17pjmedia_transportj@Base 2.4.5~dfsg
 _ZN2pj8Endpoint26utilSslGetAvailableCiphersEv@Base 2.4.5~dfsg
 _ZN2pj8Endpoint29onNatCheckStunServersCompleteERKNS_34OnNatCheckStunServersCompleteParamE@Base 2.4.5~dfsg
 _ZN2pj8Endpoint29on_call_media_transport_stateEiPK23pjsua_med_tp_state_info@Base 2.4.5~dfsg
 _ZN2pj8Endpoint7libInitERKNS_8EpConfigE@Base 2.4.5~dfsg
 _ZN2pj8Endpoint7logFuncEiPKci@Base 2.4.5~dfsg
 _ZN2pj8Endpoint7onTimerERKNS_12OnTimerParamE@Base 2.4.5~dfsg
 _ZN2pj8Endpoint8instanceEv@Base 2.4.5~dfsg
 _ZN2pj8Endpoint8libStartEv@Base 2.4.5~dfsg
 _ZN2pj8Endpoint8mediaAddERNS_10AudioMediaE@Base 2.4.5~dfsg
 _ZN2pj8Endpoint8on_timerEP15pj_timer_heap_tP14pj_timer_entry@Base 2.4.5~dfsg
 _ZN2pj8Endpoint9codecEnumEv@Base 2.4.5~dfsg
 _ZN2pj8Endpoint9instance_E@Base 2.4.5~dfsg
 _ZN2pj8Endpoint9libCreateEv@Base 2.4.5~dfsg
 _ZN2pj8Endpoint9lookupAccEiPKc@Base 2.4.5~dfsg
 _ZN2pj8Endpoint9on_pager2EiPK8pj_str_tS3_S3_S3_S3_P13pjsip_rx_datai@Base 2.4.5~dfsg
 _ZN2pj8EndpointC1Ev@Base 2.4.5~dfsg
 _ZN2pj8EndpointC2Ev@Base 2.4.5~dfsg
 _ZN2pj8EndpointD0Ev@Base 2.4.5~dfsg
 _ZN2pj8EndpointD1Ev@Base 2.4.5~dfsg
 _ZN2pj8EndpointD2Ev@Base 2.4.5~dfsg
 _ZN2pj8EpConfig10readObjectERKNS_13ContainerNodeE@Base 2.4.5~dfsg
 _ZN2pj8MathStat6fromPjERK12pj_math_stat@Base 2.4.5~dfsg
 _ZN2pj8MathStatC1Ev@Base 2.4.5~dfsg
 _ZN2pj8MathStatC2Ev@Base 2.4.5~dfsg
 _ZN2pj8RtcpSdes6fromPjERK17pjmedia_rtcp_sdes@Base 2.4.5~dfsg
 _ZN2pj8RtcpStat6fromPjERK17pjmedia_rtcp_stat@Base 2.4.5~dfsg
 _ZN2pj8SipEvent6fromPjERK11pjsip_event@Base 2.4.5~dfsg
 _ZN2pj8SipEventC1Ev@Base 2.4.5~dfsg
 _ZN2pj8SipEventC2Ev@Base 2.4.5~dfsg
 _ZN2pj8UaConfig10readObjectERKNS_13ContainerNodeE@Base 2.4.5~dfsg
 _ZN2pj8UaConfig6fromPjERK12pjsua_config@Base 2.4.5~dfsg
 _ZN2pj8UaConfigC1Ev@Base 2.4.5~dfsg
 _ZN2pj8UaConfigC2Ev@Base 2.4.5~dfsg
 _ZN2pj9BuddyInfo6fromPjERK16pjsua_buddy_info@Base 2.4.5~dfsg
 _ZN2pj9BuddyInfoD1Ev@Base 2.4.5~dfsg
 _ZN2pj9BuddyInfoD2Ev@Base 2.4.5~dfsg
 _ZN2pj9CodecInfo6fromPjERK16pjsua_codec_info@Base 2.4.5~dfsg
 _ZN2pj9JbufState6fromPjERK16pjmedia_jb_state@Base 2.4.5~dfsg
 _ZN2pj9LogConfig10readObjectERKNS_13ContainerNodeE@Base 2.4.5~dfsg
 _ZN2pj9LogConfig6fromPjERK20pjsua_logging_config@Base 2.4.5~dfsg
 _ZN2pj9LogConfigC1Ev@Base 2.4.5~dfsg
 _ZN2pj9LogConfigC2Ev@Base 2.4.5~dfsg
 _ZN2pj9SipHeader6fromPjEPK9pjsip_hdr@Base 2.4.5~dfsg
 _ZN2pj9SipHeaderD1Ev@Base 2.4.5~dfsg
 _ZN2pj9SipHeaderD2Ev@Base 2.4.5~dfsg
 _ZN2pj9SipRxData6fromPjER13pjsip_rx_data@Base 2.4.5~dfsg
 _ZN2pj9SipRxDataC1Ev@Base 2.4.5~dfsg
 _ZN2pj9SipRxDataC2Ev@Base 2.4.5~dfsg
 _ZN2pj9SipRxDataD1Ev@Base 2.4.5~dfsg
 _ZN2pj9SipRxDataD2Ev@Base 2.4.5~dfsg
 _ZN2pj9SipTxData6fromPjER13pjsip_tx_data@Base 2.4.5~dfsg
 _ZN2pj9SipTxDataC1Ev@Base 2.4.5~dfsg
 _ZN2pj9SipTxDataC2Ev@Base 2.4.5~dfsg
 _ZN2pj9SipTxDataD1Ev@Base 2.4.5~dfsg
 _ZN2pj9SipTxDataD2Ev@Base 2.4.5~dfsg
 _ZN2pj9TlsConfig10readObjectERKNS_13ContainerNodeE@Base 2.4.5~dfsg
 _ZN2pj9TlsConfig6fromPjERK17pjsip_tls_setting@Base 2.4.5~dfsg
 _ZN2pj9TlsConfigC1Ev@Base 2.4.5~dfsg
 _ZN2pj9TlsConfigC2Ev@Base 2.4.5~dfsg
 _ZN31PendingOnMediaTransportCallback7executeEb@Base 2.4.5~dfsg
 _ZN31PendingOnMediaTransportCallbackD0Ev@Base 2.4.5~dfsg
 _ZN31PendingOnMediaTransportCallbackD1Ev@Base 2.4.5~dfsg
 _ZN31PendingOnMediaTransportCallbackD2Ev@Base 2.4.5~dfsg
 _ZNK2pj10AudioMedia10getRxLevelEv@Base 2.4.5~dfsg
 _ZNK2pj10AudioMedia10getTxLevelEv@Base 2.4.5~dfsg
 _ZNK2pj10AudioMedia11getPortInfoEv@Base 2.4.5~dfsg
 _ZNK2pj10AudioMedia12stopTransmitERKS0_@Base 2.4.5~dfsg
 _ZNK2pj10AudioMedia13startTransmitERKS0_@Base 2.4.5~dfsg
 _ZNK2pj10AudioMedia9getPortIdEv@Base 2.4.5~dfsg
 _ZNK2pj11BuddyConfig11writeObjectERNS_13ContainerNodeE@Base 2.4.5~dfsg
 _ZNK2pj11CallSetting4toPjEv@Base 2.4.5~dfsg
 _ZNK2pj11CallSetting7isEmptyEv@Base 2.4.5~dfsg
 _ZNK2pj11MediaConfig11writeObjectERNS_13ContainerNodeE@Base 2.4.5~dfsg
 _ZNK2pj11MediaConfig4toPjEv@Base 2.4.5~dfsg
 _ZNK2pj11SipTxOption4toPjER14pjsua_msg_data@Base 2.4.5~dfsg
 _ZNK2pj11SipTxOption7isEmptyEv@Base 2.4.5~dfsg
 _ZNK2pj11VideoWindow7getInfoEv@Base 2.4.5~dfsg
 _ZNK2pj12AuthCredInfo11writeObjectERNS_13ContainerNodeE@Base 2.4.5~dfsg
 _ZNK2pj12JsonDocument12allocElementEv@Base 2.4.5~dfsg
 _ZNK2pj12JsonDocument16getRootContainerEv@Base 2.4.5~dfsg
 _ZNK2pj12JsonDocument8initRootEv@Base 2.4.5~dfsg
 _ZNK2pj12SipMediaType4toPjEv@Base 2.4.5~dfsg
 _ZNK2pj13AccountConfig11writeObjectERNS_13ContainerNodeE@Base 2.4.5~dfsg
 _ZNK2pj13AccountConfig4toPjER16pjsua_acc_config@Base 2.4.5~dfsg
 _ZNK2pj13AudDevManager10getDevInfoEi@Base 2.4.5~dfsg
 _ZNK2pj13AudDevManager11getDevCountEv@Base 2.4.5~dfsg
 _ZNK2pj13AudDevManager11sndIsActiveEv@Base 2.4.5~dfsg
 _ZNK2pj13AudDevManager12getActiveDevEb@Base 2.4.5~dfsg
 _ZNK2pj13AudDevManager12getExtFormatEv@Base 2.4.5~dfsg
 _ZNK2pj13AudDevManager13getCaptureDevEv@Base 2.4.5~dfsg
 _ZNK2pj13AudDevManager13getInputRouteEv@Base 2.4.5~dfsg
 _ZNK2pj13AudDevManager13setCaptureDevEi@Base 2.4.5~dfsg
 _ZNK2pj13AudDevManager14getInputSignalEv@Base 2.4.5~dfsg
 _ZNK2pj13AudDevManager14getInputVolumeEv@Base 2.4.5~dfsg
 _ZNK2pj13AudDevManager14getOutputRouteEv@Base 2.4.5~dfsg
 _ZNK2pj13AudDevManager14getPlaybackDevEv@Base 2.4.5~dfsg
 _ZNK2pj13AudDevManager14setPlaybackDevEi@Base 2.4.5~dfsg
 _ZNK2pj13AudDevManager15getInputLatencyEv@Base 2.4.5~dfsg
 _ZNK2pj13AudDevManager15getOutputSignalEv@Base 2.4.5~dfsg
 _ZNK2pj13AudDevManager15getOutputVolumeEv@Base 2.4.5~dfsg
 _ZNK2pj13AudDevManager16getOutputLatencyEv@Base 2.4.5~dfsg
 _ZNK2pj13AudDevManager6getCngEv@Base 2.4.5~dfsg
 _ZNK2pj13AudDevManager6getPlcEv@Base 2.4.5~dfsg
 _ZNK2pj13AudDevManager6getVadEv@Base 2.4.5~dfsg
 _ZNK2pj13AudDevManager7capNameB5cxx11E19pjmedia_aud_dev_cap@Base 2.4.5~dfsg
 _ZNK2pj13AudDevManager9getEcTailEv@Base 2.4.5~dfsg
 _ZNK2pj13AudDevManager9lookupDevERKNSt7__cxx1112basic_stringIcSt11char_traitsIcESaIcEEES8_@Base 2.4.5~dfsg
 _ZNK2pj13ContainerNode10readNumberERKNSt7__cxx1112basic_stringIcSt11char_traitsIcESaIcEEE@Base 2.4.5~dfsg
 _ZNK2pj13ContainerNode10readObjectERNS_16PersistentObjectE@Base 2.4.5~dfsg
 _ZNK2pj13ContainerNode10readStringERKNSt7__cxx1112basic_stringIcSt11char_traitsIcESaIcEEE@Base 2.4.5~dfsg
 _ZNK2pj13ContainerNode10unreadNameB5cxx11Ev@Base 2.4.5~dfsg
 _ZNK2pj13ContainerNode13readContainerERKNSt7__cxx1112basic_stringIcSt11char_traitsIcESaIcEEE@Base 2.4.5~dfsg
 _ZNK2pj13ContainerNode16readStringVectorERKNSt7__cxx1112basic_stringIcSt11char_traitsIcESaIcEEE@Base 2.4.5~dfsg
 _ZNK2pj13ContainerNode7readIntERKNSt7__cxx1112basic_stringIcSt11char_traitsIcESaIcEEE@Base 2.4.5~dfsg
 _ZNK2pj13ContainerNode8readBoolERKNSt7__cxx1112basic_stringIcSt11char_traitsIcESaIcEEE@Base 2.4.5~dfsg
 _ZNK2pj13ContainerNode9hasUnreadEv@Base 2.4.5~dfsg
 _ZNK2pj13ContainerNode9readArrayERKNSt7__cxx1112basic_stringIcSt11char_traitsIcESaIcEEE@Base 2.4.5~dfsg
 _ZNK2pj13ToneGenerator11getDigitMapEv@Base 2.4.5~dfsg
 _ZNK2pj13ToneGenerator6isBusyEv@Base 2.4.5~dfsg
 _ZNK2pj13VidDevManager10getDevInfoEi@Base 2.4.5~dfsg
 _ZNK2pj13VidDevManager13getInputScaleEi@Base 2.4.5~dfsg
 _ZNK2pj13VidDevManager15isCaptureActiveEi@Base 2.4.5~dfsg
 _ZNK2pj13VidDevManager7capNameB5cxx11E19pjmedia_vid_dev_cap@Base 2.4.5~dfsg
 _ZNK2pj13VidDevManager9getFormatEi@Base 2.4.5~dfsg
 _ZNK2pj13VidDevManager9lookupDevERKNSt7__cxx1112basic_stringIcSt11char_traitsIcESaIcEEES8_@Base 2.4.5~dfsg
 _ZNK2pj15TransportConfig11writeObjectERNS_13ContainerNodeE@Base 2.4.5~dfsg
 _ZNK2pj15TransportConfig4toPjEv@Base 2.4.5~dfsg
 _ZNK2pj16AccountMwiConfig11writeObjectERNS_13ContainerNodeE@Base 2.4.5~dfsg
 _ZNK2pj16AccountNatConfig11writeObjectERNS_13ContainerNodeE@Base 2.4.5~dfsg
 _ZNK2pj16AccountRegConfig11writeObjectERNS_13ContainerNodeE@Base 2.4.5~dfsg
 _ZNK2pj16AccountSipConfig11writeObjectERNS_13ContainerNodeE@Base 2.4.5~dfsg
 _ZNK2pj16AudioMediaPlayer6getPosEv@Base 2.4.5~dfsg
 _ZNK2pj16AudioMediaPlayer7getInfoEv@Base 2.4.5~dfsg
 _ZNK2pj16MediaFormatAudio4toPjEv@Base 2.4.5~dfsg
 _ZNK2pj16MediaFormatVideo4toPjEv@Base 2.4.5~dfsg
 _ZNK2pj16SipMultipartPart4toPjEv@Base 2.4.5~dfsg
 _ZNK2pj17AccountCallConfig11writeObjectERNS_13ContainerNodeE@Base 2.4.5~dfsg
 _ZNK2pj17AccountPresConfig11writeObjectERNS_13ContainerNodeE@Base 2.4.5~dfsg
 _ZNK2pj18AccountMediaConfig11writeObjectERNS_13ContainerNodeE@Base 2.4.5~dfsg
 _ZNK2pj18AccountVideoConfig11writeObjectERNS_13ContainerNodeE@Base 2.4.5~dfsg
 _ZNK2pj18PersistentDocument10readNumberERKNSt7__cxx1112basic_stringIcSt11char_traitsIcESaIcEEE@Base 2.4.5~dfsg
 _ZNK2pj18PersistentDocument10readObjectERNS_16PersistentObjectE@Base 2.4.5~dfsg
 _ZNK2pj18PersistentDocument10readStringERKNSt7__cxx1112basic_stringIcSt11char_traitsIcESaIcEEE@Base 2.4.5~dfsg
 _ZNK2pj18PersistentDocument10unreadNameB5cxx11Ev@Base 2.4.5~dfsg
 _ZNK2pj18PersistentDocument13readContainerERKNSt7__cxx1112basic_stringIcSt11char_traitsIcESaIcEEE@Base 2.4.5~dfsg
 _ZNK2pj18PersistentDocument16readStringVectorERKNSt7__cxx1112basic_stringIcSt11char_traitsIcESaIcEEE@Base 2.4.5~dfsg
 _ZNK2pj18PersistentDocument7readIntERKNSt7__cxx1112basic_stringIcSt11char_traitsIcESaIcEEE@Base 2.4.5~dfsg
 _ZNK2pj18PersistentDocument8readBoolERKNSt7__cxx1112basic_stringIcSt11char_traitsIcESaIcEEE@Base 2.4.5~dfsg
 _ZNK2pj18PersistentDocument9hasUnreadEv@Base 2.4.5~dfsg
 _ZNK2pj18PersistentDocument9readArrayERKNSt7__cxx1112basic_stringIcSt11char_traitsIcESaIcEEE@Base 2.4.5~dfsg
 _ZNK2pj19VideoPreviewOpParam4toPjEv@Base 2.4.5~dfsg
 _ZNK2pj4Call11getUserDataEv@Base 2.4.5~dfsg
 _ZNK2pj4Call12remoteHasCapEiRKNSt7__cxx1112basic_stringIcSt11char_traitsIcESaIcEEES8_@Base 2.4.5~dfsg
 _ZNK2pj4Call13getStreamInfoEj@Base 2.4.5~dfsg
 _ZNK2pj4Call13getStreamStatEj@Base 2.4.5~dfsg
 _ZNK2pj4Call15vidGetStreamIdxEv@Base 2.4.5~dfsg
 _ZNK2pj4Call18vidStreamIsRunningEi11pjmedia_dir@Base 2.4.5~dfsg
 _ZNK2pj4Call19getMedTransportInfoEj@Base 2.4.5~dfsg
 _ZNK2pj4Call5getIdEv@Base 2.4.5~dfsg
 _ZNK2pj4Call7getInfoEv@Base 2.4.5~dfsg
 _ZNK2pj4Call8getMediaEj@Base 2.4.5~dfsg
 _ZNK2pj4Call8hasMediaEv@Base 2.4.5~dfsg
 _ZNK2pj4Call8isActiveEv@Base 2.4.5~dfsg
 _ZNK2pj5Buddy7getInfoEv@Base 2.4.5~dfsg
 _ZNK2pj5Buddy7isValidEv@Base 2.4.5~dfsg
 _ZNK2pj5Error4infoB5cxx11Eb@Base 2.4.5~dfsg
 _ZNK2pj5Media7getTypeEv@Base 2.4.5~dfsg
 _ZNK2pj7Account11enumBuddiesEv@Base 2.4.5~dfsg
 _ZNK2pj7Account5getIdEv@Base 2.4.5~dfsg
 _ZNK2pj7Account7getInfoEv@Base 2.4.5~dfsg
 _ZNK2pj7Account7isValidEv@Base 2.4.5~dfsg
 _ZNK2pj7Account9findBuddyENSt7__cxx1112basic_stringIcSt11char_traitsIcESaIcEEEPNS_14FindBuddyMatchE@Base 2.4.5~dfsg
 _ZNK2pj7Account9isDefaultEv@Base 2.4.5~dfsg
 _ZNK2pj8Endpoint10libVersionEv@Base 2.4.5~dfsg
 _ZNK2pj8Endpoint11libGetStateEv@Base 2.4.5~dfsg
 _ZNK2pj8Endpoint11mediaExistsERKNS_10AudioMediaE@Base 2.4.5~dfsg
 _ZNK2pj8Endpoint13codecGetParamERKNSt7__cxx1112basic_stringIcSt11char_traitsIcESaIcEEE@Base 2.4.5~dfsg
 _ZNK2pj8Endpoint13mediaMaxPortsEv@Base 2.4.5~dfsg
 _ZNK2pj8Endpoint14mediaEnumPortsEv@Base 2.4.5~dfsg
 _ZNK2pj8Endpoint16mediaActivePortsEv@Base 2.4.5~dfsg
 _ZNK2pj8Endpoint18videoCodecGetParamERKNSt7__cxx1112basic_stringIcSt11char_traitsIcESaIcEEE@Base 2.4.5~dfsg
 _ZNK2pj8EpConfig11writeObjectERNS_13ContainerNodeE@Base 2.4.5~dfsg
 _ZNK2pj8UaConfig11writeObjectERNS_13ContainerNodeE@Base 2.4.5~dfsg
 _ZNK2pj8UaConfig4toPjEv@Base 2.4.5~dfsg
 _ZNK2pj9LogConfig11writeObjectERNS_13ContainerNodeE@Base 2.4.5~dfsg
 _ZNK2pj9LogConfig4toPjEv@Base 2.4.5~dfsg
 _ZNK2pj9SipHeader4toPjEv@Base 2.4.5~dfsg
 _ZNK2pj9TlsConfig11writeObjectERNS_13ContainerNodeE@Base 2.4.5~dfsg
 _ZNK2pj9TlsConfig4toPjEv@Base 2.4.5~dfsg
 _ZNSt6vectorIN2pj12AuthCredInfoESaIS1_EE13_M_insert_auxEN9__gnu_cxx17__normal_iteratorIPS1_S3_EERKS1_@Base 2.4.5~dfsg
 _ZNSt6vectorIN2pj12AuthCredInfoESaIS1_EE14_M_fill_insertEN9__gnu_cxx17__normal_iteratorIPS1_S3_EEmRKS1_@Base 2.4.5~dfsg
 _ZNSt6vectorIN2pj13CallMediaInfoESaIS1_EE13_M_insert_auxEN9__gnu_cxx17__normal_iteratorIPS1_S3_EERKS1_@Base 2.4.5~dfsg
 _ZNSt6vectorIN2pj16SipMultipartPartESaIS1_EE13_M_insert_auxEN9__gnu_cxx17__normal_iteratorIPS1_S3_EERKS1_@Base 2.4.5~dfsg
 _ZNSt6vectorIN2pj17ToneDigitMapDigitESaIS1_EE13_M_insert_auxEN9__gnu_cxx17__normal_iteratorIPS1_S3_EERKS1_@Base 2.4.5~dfsg
 _ZNSt6vectorIN2pj9SipHeaderESaIS1_EE13_M_insert_auxEN9__gnu_cxx17__normal_iteratorIPS1_S3_EERKS1_@Base 2.4.5~dfsg
 _ZNSt6vectorIN2pj9SipHeaderESaIS1_EE14_M_fill_insertEN9__gnu_cxx17__normal_iteratorIPS1_S3_EEmRKS1_@Base 2.4.5~dfsg
 _ZNSt6vectorIN2pj9SipHeaderESaIS1_EED1Ev@Base 2.4.5~dfsg
 _ZNSt6vectorIN2pj9SipHeaderESaIS1_EED2Ev@Base 2.4.5~dfsg
 _ZNSt6vectorIN2pj9SipHeaderESaIS1_EEaSERKS3_@Base 2.4.5~dfsg
 _ZNSt6vectorINSt7__cxx1112basic_stringIcSt11char_traitsIcESaIcEEESaIS5_EE13_M_insert_auxEN9__gnu_cxx17__normal_iteratorIPS5_S7_EERKS5_@Base 2.4.5~dfsg
 _ZNSt6vectorINSt7__cxx1112basic_stringIcSt11char_traitsIcESaIcEEESaIS5_EED1Ev@Base 2.4.5~dfsg
 _ZNSt6vectorINSt7__cxx1112basic_stringIcSt11char_traitsIcESaIcEEESaIS5_EED2Ev@Base 2.4.5~dfsg
 _ZNSt6vectorINSt7__cxx1112basic_stringIcSt11char_traitsIcESaIcEEESaIS5_EEaSERKS7_@Base 2.4.5~dfsg
 _ZNSt6vectorIPN2pj10AudioMediaESaIS2_EE13_M_insert_auxEN9__gnu_cxx17__normal_iteratorIPS2_S4_EERKS2_@Base 2.4.5~dfsg
 _ZNSt6vectorIPN2pj11MediaFormatESaIS2_EE13_M_insert_auxEN9__gnu_cxx17__normal_iteratorIPS2_S4_EERKS2_@Base 2.4.5~dfsg
 _ZNSt6vectorIPN2pj5BuddyESaIS2_EE13_M_insert_auxEN9__gnu_cxx17__normal_iteratorIPS2_S4_EERKS2_@Base 2.4.5~dfsg
 _ZNSt6vectorIPN2pj5MediaESaIS2_EE13_M_insert_auxEN9__gnu_cxx17__normal_iteratorIPS2_S4_EERKS2_@Base 2.4.5~dfsg
 _ZNSt6vectorIPN2pj9CodecInfoESaIS2_EE13_M_insert_auxEN9__gnu_cxx17__normal_iteratorIPS2_S4_EERKS2_@Base 2.4.5~dfsg
 _ZNSt6vectorIiSaIiEE13_M_insert_auxEN9__gnu_cxx17__normal_iteratorIPiS1_EERKi@Base 2.4.5~dfsg
 _ZNSt6vectorIiSaIiEE14_M_fill_insertEN9__gnu_cxx17__normal_iteratorIPiS1_EEmRKi@Base 2.4.5~dfsg
 _ZNSt6vectorIiSaIiEEaSERKS1_@Base 2.4.5~dfsg
 _ZNSt8_Rb_treeIP11pj_thread_tSt4pairIKS1_PA64_lESt10_Select1stIS6_ESt4lessIS1_ESaIS6_EE24_M_get_insert_unique_posERS3_@Base 2.4.5~dfsg
 _ZNSt8_Rb_treeIP11pj_thread_tSt4pairIKS1_PA64_lESt10_Select1stIS6_ESt4lessIS1_ESaIS6_EE29_M_get_insert_hint_unique_posESt23_Rb_tree_const_iteratorIS6_ERS3_@Base 2.4.5~dfsg
 _ZNSt8_Rb_treeIP11pj_thread_tSt4pairIKS1_PA64_lESt10_Select1stIS6_ESt4lessIS1_ESaIS6_EE8_M_eraseEPSt13_Rb_tree_nodeIS6_E@Base 2.4.5~dfsg
 _ZStplIcSt11char_traitsIcESaIcEENSt7__cxx1112basic_stringIT_T0_T1_EERKS8_SA_@Base 2.4.5~dfsg
 _ZTI10PendingLog@Base 2.4.5~dfsg
 _ZTI13DevAudioMedia@Base 2.4.5~dfsg
 _ZTI14CallAudioMedia@Base 2.4.5~dfsg
 _ZTI26PendingOnDtmfDigitCallback@Base 2.4.5~dfsg
 _ZTI27PendingOnMediaEventCallback@Base 2.4.5~dfsg
 _ZTI31PendingOnMediaTransportCallback@Base 2.4.5~dfsg
 _ZTIN2pj10AudioMediaE@Base 2.4.5~dfsg
 _ZTIN2pj10PendingJobE@Base 2.4.5~dfsg
 _ZTIN2pj11BuddyConfigE@Base 2.4.5~dfsg
 _ZTIN2pj11MediaConfigE@Base 2.4.5~dfsg
 _ZTIN2pj12AuthCredInfoE@Base 2.4.5~dfsg
 _ZTIN2pj12JsonDocumentE@Base 2.4.5~dfsg
 _ZTIN2pj13AccountConfigE@Base 2.4.5~dfsg
 _ZTIN2pj13ToneGeneratorE@Base 2.4.5~dfsg
 _ZTIN2pj14FindBuddyMatchE@Base 2.4.5~dfsg
 _ZTIN2pj15TransportConfigE@Base 2.4.5~dfsg
 _ZTIN2pj16AccountMwiConfigE@Base 2.4.5~dfsg
 _ZTIN2pj16AccountNatConfigE@Base 2.4.5~dfsg
 _ZTIN2pj16AccountRegConfigE@Base 2.4.5~dfsg
 _ZTIN2pj16AccountSipConfigE@Base 2.4.5~dfsg
 _ZTIN2pj16AudioMediaPlayerE@Base 2.4.5~dfsg
 _ZTIN2pj16PersistentObjectE@Base 2.4.5~dfsg
 _ZTIN2pj17AccountCallConfigE@Base 2.4.5~dfsg
 _ZTIN2pj17AccountPresConfigE@Base 2.4.5~dfsg
 _ZTIN2pj18AccountMediaConfigE@Base 2.4.5~dfsg
 _ZTIN2pj18AccountVideoConfigE@Base 2.4.5~dfsg
 _ZTIN2pj18AudioMediaRecorderE@Base 2.4.5~dfsg
 _ZTIN2pj18PersistentDocumentE@Base 2.4.5~dfsg
 _ZTIN2pj4CallE@Base 2.4.5~dfsg
 _ZTIN2pj5BuddyE@Base 2.4.5~dfsg
 _ZTIN2pj5ErrorE@Base 2.4.5~dfsg
 _ZTIN2pj5MediaE@Base 2.4.5~dfsg
 _ZTIN2pj7AccountE@Base 2.4.5~dfsg
 _ZTIN2pj8EndpointE@Base 2.4.5~dfsg
 _ZTIN2pj8EpConfigE@Base 2.4.5~dfsg
 _ZTIN2pj8UaConfigE@Base 2.4.5~dfsg
 _ZTIN2pj9LogConfigE@Base 2.4.5~dfsg
 _ZTIN2pj9TlsConfigE@Base 2.4.5~dfsg
 _ZTS10PendingLog@Base 2.4.5~dfsg
 _ZTS13DevAudioMedia@Base 2.4.5~dfsg
 _ZTS14CallAudioMedia@Base 2.4.5~dfsg
 _ZTS26PendingOnDtmfDigitCallback@Base 2.4.5~dfsg
 _ZTS27PendingOnMediaEventCallback@Base 2.4.5~dfsg
 _ZTS31PendingOnMediaTransportCallback@Base 2.4.5~dfsg
 _ZTSN2pj10AudioMediaE@Base 2.4.5~dfsg
 _ZTSN2pj10PendingJobE@Base 2.4.5~dfsg
 _ZTSN2pj11BuddyConfigE@Base 2.4.5~dfsg
 _ZTSN2pj11MediaConfigE@Base 2.4.5~dfsg
 _ZTSN2pj12AuthCredInfoE@Base 2.4.5~dfsg
 _ZTSN2pj12JsonDocumentE@Base 2.4.5~dfsg
 _ZTSN2pj13AccountConfigE@Base 2.4.5~dfsg
 _ZTSN2pj13ToneGeneratorE@Base 2.4.5~dfsg
 _ZTSN2pj14FindBuddyMatchE@Base 2.4.5~dfsg
 _ZTSN2pj15TransportConfigE@Base 2.4.5~dfsg
 _ZTSN2pj16AccountMwiConfigE@Base 2.4.5~dfsg
 _ZTSN2pj16AccountNatConfigE@Base 2.4.5~dfsg
 _ZTSN2pj16AccountRegConfigE@Base 2.4.5~dfsg
 _ZTSN2pj16AccountSipConfigE@Base 2.4.5~dfsg
 _ZTSN2pj16AudioMediaPlayerE@Base 2.4.5~dfsg
 _ZTSN2pj16PersistentObjectE@Base 2.4.5~dfsg
 _ZTSN2pj17AccountCallConfigE@Base 2.4.5~dfsg
 _ZTSN2pj17AccountPresConfigE@Base 2.4.5~dfsg
 _ZTSN2pj18AccountMediaConfigE@Base 2.4.5~dfsg
 _ZTSN2pj18AccountVideoConfigE@Base 2.4.5~dfsg
 _ZTSN2pj18AudioMediaRecorderE@Base 2.4.5~dfsg
 _ZTSN2pj18PersistentDocumentE@Base 2.4.5~dfsg
 _ZTSN2pj4CallE@Base 2.4.5~dfsg
 _ZTSN2pj5BuddyE@Base 2.4.5~dfsg
 _ZTSN2pj5ErrorE@Base 2.4.5~dfsg
 _ZTSN2pj5MediaE@Base 2.4.5~dfsg
 _ZTSN2pj7AccountE@Base 2.4.5~dfsg
 _ZTSN2pj8EndpointE@Base 2.4.5~dfsg
 _ZTSN2pj8EpConfigE@Base 2.4.5~dfsg
 _ZTSN2pj8UaConfigE@Base 2.4.5~dfsg
 _ZTSN2pj9LogConfigE@Base 2.4.5~dfsg
 _ZTSN2pj9TlsConfigE@Base 2.4.5~dfsg
 _ZTV10PendingLog@Base 2.4.5~dfsg
 _ZTV13DevAudioMedia@Base 2.4.5~dfsg
 _ZTV14CallAudioMedia@Base 2.4.5~dfsg
 _ZTV26PendingOnDtmfDigitCallback@Base 2.4.5~dfsg
 _ZTV27PendingOnMediaEventCallback@Base 2.4.5~dfsg
 _ZTV31PendingOnMediaTransportCallback@Base 2.4.5~dfsg
 _ZTVN2pj10AudioMediaE@Base 2.4.5~dfsg
 _ZTVN2pj11BuddyConfigE@Base 2.4.5~dfsg
 _ZTVN2pj11MediaConfigE@Base 2.4.5~dfsg
 _ZTVN2pj12AuthCredInfoE@Base 2.4.5~dfsg
 _ZTVN2pj12JsonDocumentE@Base 2.4.5~dfsg
 _ZTVN2pj13AccountConfigE@Base 2.4.5~dfsg
 _ZTVN2pj13ToneGeneratorE@Base 2.4.5~dfsg
 _ZTVN2pj14FindBuddyMatchE@Base 2.4.5~dfsg
 _ZTVN2pj15TransportConfigE@Base 2.4.5~dfsg
 _ZTVN2pj16AccountMwiConfigE@Base 2.4.5~dfsg
 _ZTVN2pj16AccountNatConfigE@Base 2.4.5~dfsg
 _ZTVN2pj16AccountRegConfigE@Base 2.4.5~dfsg
 _ZTVN2pj16AccountSipConfigE@Base 2.4.5~dfsg
 _ZTVN2pj16AudioMediaPlayerE@Base 2.4.5~dfsg
 _ZTVN2pj17AccountCallConfigE@Base 2.4.5~dfsg
 _ZTVN2pj17AccountPresConfigE@Base 2.4.5~dfsg
 _ZTVN2pj18AccountMediaConfigE@Base 2.4.5~dfsg
 _ZTVN2pj18AccountVideoConfigE@Base 2.4.5~dfsg
 _ZTVN2pj18AudioMediaRecorderE@Base 2.4.5~dfsg
 _ZTVN2pj4CallE@Base 2.4.5~dfsg
 _ZTVN2pj5BuddyE@Base 2.4.5~dfsg
 _ZTVN2pj5MediaE@Base 2.4.5~dfsg
 _ZTVN2pj7AccountE@Base 2.4.5~dfsg
 _ZTVN2pj8EndpointE@Base 2.4.5~dfsg
 _ZTVN2pj8EpConfigE@Base 2.4.5~dfsg
 _ZTVN2pj8UaConfigE@Base 2.4.5~dfsg
 _ZTVN2pj9LogConfigE@Base 2.4.5~dfsg
 _ZTVN2pj9TlsConfigE@Base 2.4.5~dfsg
